target datalayout = "e-m:e-p270:32:32-p271:32:32-p272:64:64-i64:64-i128:128-f80:128-n8:16:32:64-S128"
target triple = "x86_64-pc-linux-gnu"

%"class.sat::cut_set" = type { i32, ptr, i32, i32, ptr }
%"class.sat::cut" = type { i32, i32, [5 x i32], i64, i64 }
%class.hashtable = type { %class.core_hashtable.base, [4 x i8] }
%class.core_hashtable.base = type <{ ptr, i32, i32, i32 }>
%"struct.sat::cut::hash_proc" = type { i8 }
%"struct.sat::cut::eq_proc" = type { i8 }
%class.core_hashtable = type <{ ptr, i32, i32, i32, [4 x i8] }>
%class.default_hash_entry = type { i32, i32, ptr }

@.str = private unnamed_addr constant [106 x i8] c"generated/home/dtcxzyw/WorkSpace/Projects/compilers/llvm-opt-benchmark/bench/z3/z3/src/sat/sat_cutset.cpp\00", align 1
@.str.1 = private unnamed_addr constant [41 x i8] c"Failed to verify: !table.contains(&cut)\0A\00", align 1

; Function Attrs: mustprogress nounwind uwtable
define linkonce_odr hidden void @_ZNSt12_Destroy_auxILb1EE9__destroyIP18default_hash_entryIPKN3sat3cutEEEEvT_S9_(ptr noundef %0, ptr noundef %1) #6 comdat align 2 {
  %3 = alloca ptr, align 8
  %4 = alloca ptr, align 8
  store ptr %0, ptr %3, align 8, !tbaa !50
  store ptr %1, ptr %4, align 8, !tbaa !50
  ret void
}

; Function Attrs: inlinehint mustprogress nounwind uwtable
define linkonce_odr hidden void @_ZN18default_hash_entryIPKN3sat3cutEEC2Ev(ptr noundef nonnull align 8 dereferenceable(16) %0) unnamed_addr #7 comdat align 2 {
  %2 = alloca ptr, align 8
  store ptr %0, ptr %2, align 8, !tbaa !50
  %3 = load ptr, ptr %2, align 8
  %4 = getelementptr inbounds nuw %class.default_hash_entry, ptr %3, i32 0, i32 0
  store i32 0, ptr %4, align 8, !tbaa !98
  %5 = getelementptr inbounds nuw %class.default_hash_entry, ptr %3, i32 0, i32 1
  store i32 0, ptr %5, align 4, !tbaa !101
  ret void
}

; Function Attrs: inlinehint mustprogress uwtable
define linkonce_odr hidden void @_ZSt8_DestroyIP18default_hash_entryIPKN3sat3cutEEEvT_S7_(ptr noundef %0, ptr noundef %1) #8 comdat {
  %3 = alloca ptr, align 8
  %4 = alloca ptr, align 8
  store ptr %0, ptr %3, align 8, !tbaa !50
  store ptr %1, ptr %4, align 8, !tbaa !50
  %5 = load ptr, ptr %3, align 8, !tbaa !50
  %6 = load ptr, ptr %4, align 8, !tbaa !50
  call void @_ZNSt12_Destroy_auxILb1EE9__destroyIP18default_hash_entryIPKN3sat3cutEEEEvT_S9_(ptr noundef %5, ptr noundef %6)
  ret void
}

; Function Attrs: inlinehint mustprogress nounwind uwtable
define linkonce_odr hidden void @_ZSt18_Construct_novalueI18default_hash_entryIPKN3sat3cutEEEvPT_(ptr noundef %0) #7 comdat {
  %2 = alloca ptr, align 8
  store ptr %0, ptr %2, align 8, !tbaa !50
  %3 = load ptr, ptr %2, align 8, !tbaa !50
  call void @_ZN18default_hash_entryIPKN3sat3cutEEC2Ev(ptr noundef nonnull align 8 dereferenceable(16) %3) #3
  ret void
}

; Function Attrs: mustprogress uwtable
define linkonce_odr hidden noundef ptr @_ZNSt35__uninitialized_default_novalue_n_1ILb0EE26__uninit_default_novalue_nIP18default_hash_entryIPKN3sat3cutEEjEET_S9_T0_(ptr noundef %0, i32 noundef %1) #4 comdat align 2 personality ptr @__gxx_personality_v0 {
  %3 = alloca ptr, align 8
  %4 = alloca i32, align 4
  %5 = alloca ptr, align 8
  %6 = alloca ptr, align 8
  %7 = alloca i32, align 4
  store ptr %0, ptr %3, align 8, !tbaa !50
  store i32 %1, ptr %4, align 4, !tbaa !12
  call void @llvm.lifetime.start.p0(i64 8, ptr %5) #3
  %8 = load ptr, ptr %3, align 8, !tbaa !50
  store ptr %8, ptr %5, align 8, !tbaa !50
  br label %9

9:                                                ; preds = %15, %2
  %10 = load i32, ptr %4, align 4, !tbaa !12
  %11 = icmp ugt i32 %10, 0
  br i1 %11, label %12, label %30

12:                                               ; preds = %9
  %13 = load ptr, ptr %5, align 8, !tbaa !50
  invoke void @_ZSt18_Construct_novalueI18default_hash_entryIPKN3sat3cutEEEvPT_(ptr noundef %13)
          to label %14 unwind label %20

14:                                               ; preds = %12
  br label %15

15:                                               ; preds = %14
  %16 = load i32, ptr %4, align 4, !tbaa !12
  %17 = add i32 %16, -1
  store i32 %17, ptr %4, align 4, !tbaa !12
  %18 = load ptr, ptr %5, align 8, !tbaa !50
  %19 = getelementptr inbounds nuw %class.default_hash_entry, ptr %18, i32 1
  store ptr %19, ptr %5, align 8, !tbaa !50
  br label %9, !llvm.loop !97

20:                                               ; preds = %12
  %21 = landingpad { ptr, i32 }
          catch ptr null
  %22 = extractvalue { ptr, i32 } %21, 0
  store ptr %22, ptr %6, align 8
  %23 = extractvalue { ptr, i32 } %21, 1
  store i32 %23, ptr %7, align 4
  br label %24

24:                                               ; preds = %20
  %25 = load ptr, ptr %6, align 8
  %26 = call ptr @__cxa_begin_catch(ptr %25) #3
  %27 = load ptr, ptr %3, align 8, !tbaa !50
  %28 = load ptr, ptr %5, align 8, !tbaa !50
  invoke void @_ZSt8_DestroyIP18default_hash_entryIPKN3sat3cutEEEvT_S7_(ptr noundef %27, ptr noundef %28)
          to label %29 unwind label %32

29:                                               ; preds = %24
  invoke void @__cxa_rethrow() #18
          to label %46 unwind label %32

30:                                               ; preds = %9
  %31 = load ptr, ptr %5, align 8, !tbaa !50
  call void @llvm.lifetime.end.p0(i64 8, ptr %5) #3
  ret ptr %31

32:                                               ; preds = %29, %24
  %33 = landingpad { ptr, i32 }
          cleanup
  %34 = extractvalue { ptr, i32 } %33, 0
  store ptr %34, ptr %6, align 8
  %35 = extractvalue { ptr, i32 } %33, 1
  store i32 %35, ptr %7, align 4
  invoke void @__cxa_end_catch()
          to label %36 unwind label %43

36:                                               ; preds = %32
  call void @llvm.lifetime.end.p0(i64 8, ptr %5) #3
  br label %38

37:                                               ; No predecessors!
  unreachable

38:                                               ; preds = %36
  %39 = load ptr, ptr %6, align 8
  %40 = load i32, ptr %7, align 4
  %41 = insertvalue { ptr, i32 } poison, ptr %39, 0
  %42 = insertvalue { ptr, i32 } %41, i32 %40, 1
  resume { ptr, i32 } %42

43:                                               ; preds = %32
  %44 = landingpad { ptr, i32 }
          catch ptr null
  %45 = extractvalue { ptr, i32 } %44, 0
  call void @__clang_call_terminate(ptr %45) #17
  unreachable

46:                                               ; preds = %29
  unreachable
}

; Function Attrs: inlinehint mustprogress uwtable
define linkonce_odr hidden noundef ptr @_ZSt33__uninitialized_default_novalue_nIP18default_hash_entryIPKN3sat3cutEEjET_S7_T0_(ptr noundef %0, i32 noundef %1) #8 comdat {
  %3 = alloca ptr, align 8
  %4 = alloca i32, align 4
  store ptr %0, ptr %3, align 8, !tbaa !50
  store i32 %1, ptr %4, align 4, !tbaa !12
  %5 = load ptr, ptr %3, align 8, !tbaa !50
  %6 = load i32, ptr %4, align 4, !tbaa !12
  %7 = call noundef ptr @_ZNSt35__uninitialized_default_novalue_n_1ILb0EE26__uninit_default_novalue_nIP18default_hash_entryIPKN3sat3cutEEjEET_S9_T0_(ptr noundef %5, i32 noundef %6)
  ret ptr %7
}

; Function Attrs: inlinehint mustprogress uwtable
define linkonce_odr hidden noundef ptr @_ZSt33uninitialized_default_construct_nIP18default_hash_entryIPKN3sat3cutEEjET_S7_T0_(ptr noundef %0, i32 noundef %1) #8 comdat {
  %3 = alloca ptr, align 8
  %4 = alloca i32, align 4
  store ptr %0, ptr %3, align 8, !tbaa !50
  store i32 %1, ptr %4, align 4, !tbaa !12
  %5 = load ptr, ptr %3, align 8, !tbaa !50
  %6 = load i32, ptr %4, align 4, !tbaa !12
  %7 = call noundef ptr @_ZSt33__uninitialized_default_novalue_nIP18default_hash_entryIPKN3sat3cutEEjET_S7_T0_(ptr noundef %5, i32 noundef %6)
  ret ptr %7
}

; Function Attrs: mustprogress uwtable
define linkonce_odr hidden noalias noundef ptr @_Z10alloc_vectI18default_hash_entryIPKN3sat3cutEEEPT_j(i32 noundef %0) #4 comdat {
  %2 = alloca i32, align 4
  %3 = alloca ptr, align 8
  store i32 %0, ptr %2, align 4, !tbaa !12
  call void @llvm.lifetime.start.p0(i64 8, ptr %3) #3
  %4 = load i32, ptr %2, align 4, !tbaa !12
  %5 = zext i32 %4 to i64
  %6 = mul i64 16, %5
  %7 = call noalias noundef ptr @_ZN6memory8allocateEm(i64 noundef %6)
  store ptr %7, ptr %3, align 8, !tbaa !50
  %8 = load ptr, ptr %3, align 8, !tbaa !50
  %9 = load i32, ptr %2, align 4, !tbaa !12
  %10 = call noundef ptr @_ZSt33uninitialized_default_construct_nIP18default_hash_entryIPKN3sat3cutEEjET_S7_T0_(ptr noundef %8, i32 noundef %9)
  %11 = load ptr, ptr %3, align 8, !tbaa !50
  call void @llvm.lifetime.end.p0(i64 8, ptr %3) #3
  ret ptr %11
}

; Function Attrs: mustprogress uwtable
define linkonce_odr hidden noundef ptr @_ZN14core_hashtableI18default_hash_entryIPKN3sat3cutEENS2_9hash_procENS2_7eq_procEE11alloc_tableEj(ptr noundef nonnull align 8 dereferenceable(20) %0, i32 noundef %1) #4 comdat align 2 {
  %3 = alloca ptr, align 8
  %4 = alloca i32, align 4
  %5 = alloca ptr, align 8
  store ptr %0, ptr %3, align 8, !tbaa !39
  store i32 %1, ptr %4, align 4, !tbaa !12
  call void @llvm.lifetime.start.p0(i64 8, ptr %5) #3
  %6 = load i32, ptr %4, align 4, !tbaa !12
  %7 = call noalias noundef ptr @_Z10alloc_vectI18default_hash_entryIPKN3sat3cutEEEPT_j(i32 noundef %6)
  store ptr %7, ptr %5, align 8, !tbaa !50
  %8 = load ptr, ptr %5, align 8, !tbaa !50
  call void @llvm.lifetime.end.p0(i64 8, ptr %5) #3
  ret ptr %8
}

; Function Attrs: mustprogress uwtable
define linkonce_odr hidden void @_ZN14core_hashtableI18default_hash_entryIPKN3sat3cutEENS2_9hash_procENS2_7eq_procEEC2EjRKS6_RKS7_(ptr noundef nonnull align 8 dereferenceable(20) %0, i32 noundef %1, ptr noundef nonnull align 1 dereferenceable(1) %2, ptr noundef nonnull align 1 dereferenceable(1) %3) unnamed_addr #4 comdat align 2 {
  %5 = alloca ptr, align 8
  %6 = alloca i32, align 4
  %7 = alloca ptr, align 8
  %8 = alloca ptr, align 8
  store ptr %0, ptr %5, align 8, !tbaa !39
  store i32 %1, ptr %6, align 4, !tbaa !12
  store ptr %2, ptr %7, align 8, !tbaa !35
  store ptr %3, ptr %8, align 8, !tbaa !37
  %9 = load ptr, ptr %5, align 8
  %10 = load i32, ptr %6, align 4, !tbaa !12
  %11 = call noundef ptr @_ZN14core_hashtableI18default_hash_entryIPKN3sat3cutEENS2_9hash_procENS2_7eq_procEE11alloc_tableEj(ptr noundef nonnull align 8 dereferenceable(20) %9, i32 noundef %10)
  %12 = getelementptr inbounds nuw %class.core_hashtable, ptr %9, i32 0, i32 0
  store ptr %11, ptr %12, align 8, !tbaa !49
  %13 = load i32, ptr %6, align 4, !tbaa !12
  %14 = getelementptr inbounds nuw %class.core_hashtable, ptr %9, i32 0, i32 1
  store i32 %13, ptr %14, align 8, !tbaa !48
  %15 = getelementptr inbounds nuw %class.core_hashtable, ptr %9, i32 0, i32 2
  store i32 0, ptr %15, align 4, !tbaa !44
  %16 = getelementptr inbounds nuw %class.core_hashtable, ptr %9, i32 0, i32 3
  store i32 0, ptr %16, align 8, !tbaa !47
  ret void
}

; Function Attrs: mustprogress uwtable
define linkonce_odr hidden noundef zeroext i1 @_ZNK14core_hashtableI18default_hash_entryIPKN3sat3cutEENS2_9hash_procENS2_7eq_procEE8containsERKS4_(ptr noundef nonnull align 8 dereferenceable(20) %0, ptr noundef nonnull align 8 dereferenceable(8) %1) #4 comdat align 2 {
  %3 = alloca ptr, align 8
  %4 = alloca ptr, align 8
  store ptr %0, ptr %3, align 8, !tbaa !39
  store ptr %1, ptr %4, align 8, !tbaa !41
  %5 = load ptr, ptr %3, align 8
  %6 = load ptr, ptr %4, align 8, !tbaa !41
  %7 = call noundef ptr @_ZNK14core_hashtableI18default_hash_entryIPKN3sat3cutEENS2_9hash_procENS2_7eq_procEE9find_coreERKS4_(ptr noundef nonnull align 8 dereferenceable(20) %5, ptr noundef nonnull align 8 dereferenceable(8) %6)
  %8 = icmp ne ptr %7, null
  ret i1 %8
}

; Function Attrs: mustprogress nounwind uwtable
define linkonce_odr hidden noundef ptr @_ZNK3sat7cut_set3endEv(ptr noundef nonnull align 8 dereferenceable(32) %0) #6 comdat align 2 {
  %2 = alloca ptr, align 8
  store ptr %0, ptr %2, align 8, !tbaa !3
  %3 = load ptr, ptr %2, align 8
  %4 = getelementptr inbounds nuw %"class.sat::cut_set", ptr %3, i32 0, i32 4
  %5 = load ptr, ptr %4, align 8, !tbaa !17
  %6 = getelementptr inbounds nuw %"class.sat::cut_set", ptr %3, i32 0, i32 2
  %7 = load i32, ptr %6, align 8, !tbaa !14
  %8 = zext i32 %7 to i64
  %9 = getelementptr inbounds nuw %"class.sat::cut", ptr %5, i64 %8
  ret ptr %9
}

; Function Attrs: mustprogress nounwind uwtable
define linkonce_odr hidden noundef ptr @_ZNK3sat7cut_set5beginEv(ptr noundef nonnull align 8 dereferenceable(32) %0) #6 comdat align 2 {
  %2 = alloca ptr, align 8
  store ptr %0, ptr %2, align 8, !tbaa !3
  %3 = load ptr, ptr %2, align 8
  %4 = getelementptr inbounds nuw %"class.sat::cut_set", ptr %3, i32 0, i32 4
  %5 = load ptr, ptr %4, align 8, !tbaa !17
  ret ptr %5
}

; Function Attrs: mustprogress uwtable
define linkonce_odr hidden void @_ZN9hashtableIPKN3sat3cutENS1_9hash_procENS1_7eq_procEEC2EjRKS4_RKS5_(ptr noundef nonnull align 8 dereferenceable(20) %0, i32 noundef %1, ptr noundef nonnull align 1 dereferenceable(1) %2, ptr noundef nonnull align 1 dereferenceable(1) %3) unnamed_addr #4 comdat align 2 {
  %5 = alloca ptr, align 8
  %6 = alloca i32, align 4
  %7 = alloca ptr, align 8
  %8 = alloca ptr, align 8
  store ptr %0, ptr %5, align 8, !tbaa !33
  store i32 %1, ptr %6, align 4, !tbaa !12
  store ptr %2, ptr %7, align 8, !tbaa !35
  store ptr %3, ptr %8, align 8, !tbaa !37
  %9 = load ptr, ptr %5, align 8
  %10 = load i32, ptr %6, align 4, !tbaa !12
  %11 = load ptr, ptr %7, align 8, !tbaa !35
  %12 = load ptr, ptr %8, align 8, !tbaa !37
  call void @_ZN14core_hashtableI18default_hash_entryIPKN3sat3cutEENS2_9hash_procENS2_7eq_procEEC2EjRKS6_RKS7_(ptr noundef nonnull align 8 dereferenceable(20) %9, i32 noundef %10, ptr noundef nonnull align 1 dereferenceable(1) %11, ptr noundef nonnull align 1 dereferenceable(1) %12)
  ret void
}

; Function Attrs: mustprogress uwtable
define hidden noundef zeroext i1 @_ZNK3sat7cut_set13no_duplicatesEv(ptr noundef nonnull align 8 dereferenceable(32) %0) #4 align 2 personality ptr @__gxx_personality_v0 {
  %2 = alloca ptr, align 8
  %3 = alloca %class.hashtable, align 8
  %4 = alloca %"struct.sat::cut::hash_proc", align 1
  %5 = alloca %"struct.sat::cut::eq_proc", align 1
  %6 = alloca ptr, align 8
  %7 = alloca ptr, align 8
  %8 = alloca ptr, align 8
  %9 = alloca i32, align 4
  %10 = alloca ptr, align 8
  %11 = alloca ptr, align 8
  %12 = alloca ptr, align 8
  %13 = alloca ptr, align 8
  store ptr %0, ptr %2, align 8, !tbaa !3
  %14 = load ptr, ptr %2, align 8
  call void @llvm.lifetime.start.p0(i64 24, ptr %3) #3
  call void @llvm.lifetime.start.p0(i64 1, ptr %4) #3
  call void @llvm.lifetime.start.p0(i64 1, ptr %5) #3
  call void @_ZN9hashtableIPKN3sat3cutENS1_9hash_procENS1_7eq_procEEC2EjRKS4_RKS5_(ptr noundef nonnull align 8 dereferenceable(20) %3, i32 noundef 8, ptr noundef nonnull align 1 dereferenceable(1) %4, ptr noundef nonnull align 1 dereferenceable(1) %5)
  call void @llvm.lifetime.end.p0(i64 1, ptr %5) #3
  call void @llvm.lifetime.end.p0(i64 1, ptr %4) #3
  call void @llvm.lifetime.start.p0(i64 8, ptr %6) #3
  store ptr %14, ptr %6, align 8, !tbaa !3
  call void @llvm.lifetime.start.p0(i64 8, ptr %7) #3
  %15 = load ptr, ptr %6, align 8, !tbaa !3
  %16 = invoke noundef ptr @_ZNK3sat7cut_set5beginEv(ptr noundef nonnull align 8 dereferenceable(32) %15)
          to label %17 unwind label %26

17:                                               ; preds = %1
  store ptr %16, ptr %7, align 8, !tbaa !10
  call void @llvm.lifetime.start.p0(i64 8, ptr %10) #3
  %18 = load ptr, ptr %6, align 8, !tbaa !3
  %19 = invoke noundef ptr @_ZNK3sat7cut_set3endEv(ptr noundef nonnull align 8 dereferenceable(32) %18)
          to label %20 unwind label %30

20:                                               ; preds = %17
  store ptr %19, ptr %10, align 8, !tbaa !10
  br label %21

21:                                               ; preds = %55, %20
  %22 = load ptr, ptr %7, align 8, !tbaa !10
  %23 = load ptr, ptr %10, align 8, !tbaa !10
  %24 = icmp ne ptr %22, %23
  br i1 %24, label %34, label %25

25:                                               ; preds = %21
  call void @llvm.lifetime.end.p0(i64 8, ptr %10) #3
  call void @llvm.lifetime.end.p0(i64 8, ptr %7) #3
  call void @llvm.lifetime.end.p0(i64 8, ptr %6) #3
  br label %65

26:                                               ; preds = %1
  %27 = landingpad { ptr, i32 }
          cleanup
  %28 = extractvalue { ptr, i32 } %27, 0
  store ptr %28, ptr %8, align 8
  %29 = extractvalue { ptr, i32 } %27, 1
  store i32 %29, ptr %9, align 4
  br label %64

30:                                               ; preds = %17
  %31 = landingpad { ptr, i32 }
          cleanup
  %32 = extractvalue { ptr, i32 } %31, 0
  store ptr %32, ptr %8, align 8
  %33 = extractvalue { ptr, i32 } %31, 1
  store i32 %33, ptr %9, align 4
  br label %63

34:                                               ; preds = %21
  call void @llvm.lifetime.start.p0(i64 8, ptr %11) #3
  %35 = load ptr, ptr %7, align 8, !tbaa !10
  store ptr %35, ptr %11, align 8, !tbaa !10
  call void @llvm.lifetime.start.p0(i64 8, ptr %12) #3
  %36 = load ptr, ptr %11, align 8, !tbaa !10
  store ptr %36, ptr %12, align 8, !tbaa !10
  %37 = invoke noundef zeroext i1 @_ZNK14core_hashtableI18default_hash_entryIPKN3sat3cutEENS2_9hash_procENS2_7eq_procEE8containsERKS4_(ptr noundef nonnull align 8 dereferenceable(20) %3, ptr noundef nonnull align 8 dereferenceable(8) %12)
          to label %38 unwind label %44

38:                                               ; preds = %34
  %39 = xor i1 %37, true
  %40 = xor i1 %39, true
  call void @llvm.lifetime.end.p0(i64 8, ptr %12) #3
  br i1 %40, label %41, label %52

41:                                               ; preds = %38
  invoke void @_Z26notify_assertion_violationPKciS0_(ptr noundef @.str, i32 noundef 58, ptr noundef @.str.1)
          to label %42 unwind label %48

42:                                               ; preds = %41
  invoke void @_Z18invoke_exit_actionj(i32 noundef 114)
          to label %43 unwind label %48

43:                                               ; preds = %42
  br label %52

44:                                               ; preds = %34
  %45 = landingpad { ptr, i32 }
          cleanup
  %46 = extractvalue { ptr, i32 } %45, 0
  store ptr %46, ptr %8, align 8
  %47 = extractvalue { ptr, i32 } %45, 1
  store i32 %47, ptr %9, align 4
  call void @llvm.lifetime.end.p0(i64 8, ptr %12) #3
  br label %62

48:                                               ; preds = %42, %41
  %49 = landingpad { ptr, i32 }
          cleanup
  %50 = extractvalue { ptr, i32 } %49, 0
  store ptr %50, ptr %8, align 8
  %51 = extractvalue { ptr, i32 } %49, 1
  store i32 %51, ptr %9, align 4
  br label %62

52:                                               ; preds = %43, %38
  call void @llvm.lifetime.start.p0(i64 8, ptr %13) #3
  %53 = load ptr, ptr %11, align 8, !tbaa !10
  store ptr %53, ptr %13, align 8, !tbaa !10
  invoke void @_ZN14core_hashtableI18default_hash_entryIPKN3sat3cutEENS2_9hash_procENS2_7eq_procEE6insertEOS4_(ptr noundef nonnull align 8 dereferenceable(20) %3, ptr noundef nonnull align 8 dereferenceable(8) %13)
          to label %54 unwind label %58

54:                                               ; preds = %52
  call void @llvm.lifetime.end.p0(i64 8, ptr %13) #3
  call void @llvm.lifetime.end.p0(i64 8, ptr %11) #3
  br label %55

55:                                               ; preds = %54
  %56 = load ptr, ptr %7, align 8, !tbaa !10
  %57 = getelementptr inbounds nuw %"class.sat::cut", ptr %56, i32 1
  store ptr %57, ptr %7, align 8, !tbaa !10
  br label %21

58:                                               ; preds = %52
  %59 = landingpad { ptr, i32 }
          cleanup
  %60 = extractvalue { ptr, i32 } %59, 0
  store ptr %60, ptr %8, align 8
  %61 = extractvalue { ptr, i32 } %59, 1
  store i32 %61, ptr %9, align 4
  call void @llvm.lifetime.end.p0(i64 8, ptr %13) #3
  br label %62

62:                                               ; preds = %58, %48, %44
  call void @llvm.lifetime.end.p0(i64 8, ptr %11) #3
  br label %63

63:                                               ; preds = %62, %30
  call void @llvm.lifetime.end.p0(i64 8, ptr %10) #3
  br label %64

64:                                               ; preds = %63, %26
  call void @llvm.lifetime.end.p0(i64 8, ptr %7) #3
  call void @llvm.lifetime.end.p0(i64 8, ptr %6) #3
  call void @_ZN14core_hashtableI18default_hash_entryIPKN3sat3cutEENS2_9hash_procENS2_7eq_procEED2Ev(ptr noundef nonnull align 8 dereferenceable(20) %3) #3
  call void @llvm.lifetime.end.p0(i64 24, ptr %3) #3
  br label %66

65:                                               ; preds = %25
  call void @_ZN14core_hashtableI18default_hash_entryIPKN3sat3cutEENS2_9hash_procENS2_7eq_procEED2Ev(ptr noundef nonnull align 8 dereferenceable(20) %3) #3
  call void @llvm.lifetime.end.p0(i64 24, ptr %3) #3
  ret i1 true

66:                                               ; preds = %64
  %67 = load ptr, ptr %8, align 8
  %68 = load i32, ptr %9, align 4
  %69 = insertvalue { ptr, i32 } poison, ptr %67, 0
  %70 = insertvalue { ptr, i32 } %69, i32 %68, 1
  resume { ptr, i32 } %70
}