; Function Attrs: mustprogress uwtable
define hidden noundef zeroext i1 @_ZNK3sat7cut_set13no_duplicatesEv(ptr noundef nonnull readonly align 8 captures(none) dereferenceable(32) %0) local_unnamed_addr #3 align 2 personality ptr @__gxx_personality_v0 {
  %2 = alloca %class.hashtable, align 8
  %3 = alloca ptr, align 8
  %4 = alloca ptr, align 8
  call void @llvm.lifetime.start.p0(i64 24, ptr nonnull %2) #21
  %5 = tail call noalias noundef ptr @_ZN6memory8allocateEm(i64 noundef 128)
  br label %.lr.ph.i.i.i.i.i.i.i

.lr.ph.i.i.i.i.i.i.i:                             ; preds = %.lr.ph.i.i.i.i.i.i.i, %1
  %.08.i.i.i.i.i.i.i = phi ptr [ %8, %.lr.ph.i.i.i.i.i.i.i ], [ %5, %1 ]
  %.057.i.i.i.i.i.i.i = phi i32 [ %7, %.lr.ph.i.i.i.i.i.i.i ], [ 8, %1 ]
  store i32 0, ptr %.08.i.i.i.i.i.i.i, align 8, !tbaa !32
  %6 = getelementptr inbounds nuw i8, ptr %.08.i.i.i.i.i.i.i, i64 4
  store i32 0, ptr %6, align 4, !tbaa !35
  %7 = add nsw i32 %.057.i.i.i.i.i.i.i, -1
  %8 = getelementptr inbounds nuw i8, ptr %.08.i.i.i.i.i.i.i, i64 16
  %.not.i.i.i.i.i.i.i = icmp eq i32 %7, 0
  br i1 %.not.i.i.i.i.i.i.i, label %_ZN9hashtableIPKN3sat3cutENS1_9hash_procENS1_7eq_procEEC2EjRKS4_RKS5_.exit, label %.lr.ph.i.i.i.i.i.i.i, !llvm.loop !36

_ZN9hashtableIPKN3sat3cutENS1_9hash_procENS1_7eq_procEEC2EjRKS4_RKS5_.exit: ; preds = %.lr.ph.i.i.i.i.i.i.i
  store ptr %5, ptr %2, align 8, !tbaa !37
  %9 = getelementptr inbounds nuw i8, ptr %2, i64 8
  store i32 8, ptr %9, align 8, !tbaa !40
  %10 = getelementptr inbounds nuw i8, ptr %2, i64 12
  store i32 0, ptr %10, align 4, !tbaa !41
  %11 = getelementptr inbounds nuw i8, ptr %2, i64 16
  store i32 0, ptr %11, align 8, !tbaa !42
  %12 = getelementptr inbounds nuw i8, ptr %0, i64 24
  %13 = load ptr, ptr %12, align 8, !tbaa !11
  %14 = getelementptr inbounds nuw i8, ptr %0, i64 16
  %15 = load i32, ptr %14, align 8, !tbaa !3
  %16 = zext i32 %15 to i64
  %17 = getelementptr inbounds nuw %"class.sat::cut", ptr %13, i64 %16
  %.not15 = icmp eq i32 %15, 0
  br i1 %.not15, label %._crit_edge, label %.lr.ph

._crit_edge.loopexit:                             ; preds = %33
  %.pre = load ptr, ptr %2, align 8, !tbaa !37
  br label %._crit_edge

._crit_edge:                                      ; preds = %._crit_edge.loopexit, %_ZN9hashtableIPKN3sat3cutENS1_9hash_procENS1_7eq_procEEC2EjRKS4_RKS5_.exit
  %18 = phi ptr [ %.pre, %._crit_edge.loopexit ], [ %5, %_ZN9hashtableIPKN3sat3cutENS1_9hash_procENS1_7eq_procEEC2EjRKS4_RKS5_.exit ]
  %19 = icmp eq ptr %18, null
  br i1 %19, label %_ZN14core_hashtableI18default_hash_entryIPKN3sat3cutEENS2_9hash_procENS2_7eq_procEED2Ev.exit, label %20

20:                                               ; preds = %._crit_edge
  invoke void @_ZN6memory10deallocateEPv(ptr noundef nonnull %18)
          to label %_ZN14core_hashtableI18default_hash_entryIPKN3sat3cutEENS2_9hash_procENS2_7eq_procEED2Ev.exit unwind label %21

21:                                               ; preds = %20
  %22 = landingpad { ptr, i32 }
          catch ptr null
  %23 = extractvalue { ptr, i32 } %22, 0
  call void @__clang_call_terminate(ptr %23) #22
  unreachable

_ZN14core_hashtableI18default_hash_entryIPKN3sat3cutEENS2_9hash_procENS2_7eq_procEED2Ev.exit: ; preds = %._crit_edge, %20
  call void @llvm.lifetime.end.p0(i64 24, ptr nonnull %2) #21
  ret i1 true

.lr.ph:                                           ; preds = %_ZN9hashtableIPKN3sat3cutENS1_9hash_procENS1_7eq_procEEC2EjRKS4_RKS5_.exit, %33
  %.016 = phi ptr [ %34, %33 ], [ %13, %_ZN9hashtableIPKN3sat3cutENS1_9hash_procENS1_7eq_procEEC2EjRKS4_RKS5_.exit ]
  call void @llvm.lifetime.start.p0(i64 8, ptr nonnull %3) #21
  store ptr %.016, ptr %3, align 8, !tbaa !43
  %24 = invoke noundef ptr @_ZNK14core_hashtableI18default_hash_entryIPKN3sat3cutEENS2_9hash_procENS2_7eq_procEE9find_coreERKS4_(ptr noundef nonnull align 8 dereferenceable(20) %2, ptr noundef nonnull align 8 dereferenceable(8) %3)
          to label %25 unwind label %28

25:                                               ; preds = %.lr.ph
  %.not14 = icmp eq ptr %24, null
  call void @llvm.lifetime.end.p0(i64 8, ptr nonnull %3) #21
  br i1 %.not14, label %32, label %26

26:                                               ; preds = %25
  invoke void @_Z26notify_assertion_violationPKciS0_(ptr noundef nonnull @.str, i32 noundef 58, ptr noundef nonnull @.str.1)
          to label %27 unwind label %30

27:                                               ; preds = %26
  invoke void @_Z18invoke_exit_actionj(i32 noundef 114)
          to label %32 unwind label %30

28:                                               ; preds = %.lr.ph
  %29 = landingpad { ptr, i32 }
          cleanup
  call void @llvm.lifetime.end.p0(i64 8, ptr nonnull %3) #21
  br label %37

30:                                               ; preds = %27, %26
  %31 = landingpad { ptr, i32 }
          cleanup
  br label %37

32:                                               ; preds = %27, %25
  call void @llvm.lifetime.start.p0(i64 8, ptr nonnull %4) #21
  store ptr %.016, ptr %4, align 8, !tbaa !43
  invoke void @_ZN14core_hashtableI18default_hash_entryIPKN3sat3cutEENS2_9hash_procENS2_7eq_procEE6insertEOS4_(ptr noundef nonnull align 8 dereferenceable(20) %2, ptr noundef nonnull align 8 dereferenceable(8) %4)
          to label %33 unwind label %35

33:                                               ; preds = %32
  call void @llvm.lifetime.end.p0(i64 8, ptr nonnull %4) #21
  %34 = getelementptr inbounds nuw i8, ptr %.016, i64 48
  %.not = icmp eq ptr %34, %17
  br i1 %.not, label %._crit_edge.loopexit, label %.lr.ph

35:                                               ; preds = %32
  %36 = landingpad { ptr, i32 }
          cleanup
  call void @llvm.lifetime.end.p0(i64 8, ptr nonnull %4) #21
  br label %37

37:                                               ; preds = %35, %30, %28
  %.pn = phi { ptr, i32 } [ %36, %35 ], [ %31, %30 ], [ %29, %28 ]
  call void @_ZN14core_hashtableI18default_hash_entryIPKN3sat3cutEENS2_9hash_procENS2_7eq_procEED2Ev(ptr noundef nonnull align 8 dereferenceable(20) %2) #21
  call void @llvm.lifetime.end.p0(i64 24, ptr nonnull %2) #21
  resume { ptr, i32 } %.pn
}